target datalayout = "e-m:e-p270:32:32-p271:32:32-p272:64:64-i64:64-i128:128-f80:128-n8:16:32:64-S128"
target triple = "x86_64-pc-linux-gnu"

%struct.except_id_t = type { i64, i64 }
%struct.except_stacknode = type { ptr, i32, %union.anon }
%union.anon = type { ptr }
%struct._packet_info = type { ptr, ptr, i32, i32, %struct.nstime_t, %struct.nstime_t, %struct.nstime_t, i8, ptr, ptr, ptr, ptr, %struct._address, %struct._address, %struct._address, %struct._address, %struct._address, %struct._address, i32, ptr, i8, [3 x i8], %struct.anon, i32, i32, i32, i32, ptr, i8, ptr, ptr, i16, i16, i32, i32, i16, i32, i32, ptr, ptr, ptr, i8, i8, i16, i16, i16, i32, i16, i16, ptr, ptr, ptr, ptr, ptr, i32, i32 }
%struct.nstime_t = type { i64, i32 }
%struct._address = type { i32, i32, ptr, ptr }
%struct.anon = type { i8, [3 x i8] }
%struct.except_catch = type { ptr, i64, %struct.except_t, [1 x %struct.__jmp_buf_tag] }
%struct.except_t = type { %struct.except_id_t, ptr, ptr }
%struct.__jmp_buf_tag = type { [8 x i64], i32, %struct.__sigset_t }
%struct.__sigset_t = type { [16 x i64] }

@table_media = internal global ptr null, align 8
@dissect_value_x5cert.catch_spec = internal constant [1 x %struct.except_id_t] [%struct.except_id_t { i64 1, i64 0 }], align 16
@.str.242 = private unnamed_addr constant [22 x i8] c"application/pkix-cert\00", align 1

; Function Attrs: null_pointer_is_valid sspstrong uwtable
define internal void @dissect_value_x5cert(ptr noundef %0, ptr noundef %1, ptr noundef %2, ptr noundef %3) #0 {
  %5 = alloca ptr, align 8
  %6 = alloca ptr, align 8
  %7 = alloca ptr, align 8
  %8 = alloca ptr, align 8
  %9 = alloca ptr, align 8
  %10 = alloca ptr, align 8
  %11 = alloca ptr, align 8
  %12 = alloca ptr, align 8
  %13 = alloca i32, align 4
  %14 = alloca %struct.except_stacknode, align 8
  %15 = alloca %struct.except_catch, align 8
  store ptr %0, ptr %5, align 8
  store ptr %1, ptr %6, align 8
  store ptr %2, ptr %7, align 8
  store ptr %3, ptr %8, align 8
  call void @llvm.lifetime.start.p0(i64 8, ptr %9) #12
  %16 = load ptr, ptr %6, align 8
  %17 = getelementptr inbounds nuw %struct._packet_info, ptr %16, i32 0, i32 51
  %18 = load ptr, ptr %17, align 8
  %19 = load ptr, ptr %5, align 8
  %20 = load ptr, ptr %8, align 8
  %21 = call ptr @wscbor_chunk_read(ptr noundef %18, ptr noundef %19, ptr noundef %20)
  store ptr %21, ptr %9, align 8
  call void @llvm.lifetime.start.p0(i64 8, ptr %10) #12
  %22 = load ptr, ptr %6, align 8
  %23 = getelementptr inbounds nuw %struct._packet_info, ptr %22, i32 0, i32 51
  %24 = load ptr, ptr %23, align 8
  %25 = load ptr, ptr %9, align 8
  %26 = call ptr @wscbor_require_bstr(ptr noundef %24, ptr noundef %25)
  store ptr %26, ptr %10, align 8
  %27 = load ptr, ptr %10, align 8
  %28 = icmp ne ptr %27, null
  br i1 %28, label %29, label %95

29:                                               ; preds = %4
  call void @llvm.lifetime.start.p0(i64 8, ptr %11) #12
  %30 = load ptr, ptr %6, align 8
  %31 = getelementptr inbounds nuw %struct._packet_info, ptr %30, i32 0, i32 51
  %32 = load ptr, ptr %31, align 8
  %33 = load ptr, ptr %6, align 8
  %34 = getelementptr inbounds nuw %struct._packet_info, ptr %33, i32 0, i32 1
  %35 = load ptr, ptr %34, align 8
  %36 = call ptr @col_get_text(ptr noundef %35, i32 noundef 25)
  %37 = call noalias ptr @wmem_strdup(ptr noundef %32, ptr noundef %36)
  store ptr %37, ptr %11, align 8
  call void @llvm.lifetime.start.p0(i64 8, ptr %12) #12
  call void @llvm.lifetime.start.p0(i64 4, ptr %13) #12
  store volatile i32 0, ptr %13, align 4
  call void @llvm.lifetime.start.p0(i64 24, ptr %14) #12
  call void @llvm.lifetime.start.p0(i64 248, ptr %15) #12
  call void @except_setup_try(ptr noundef %14, ptr noundef %15, ptr noundef @dissect_value_x5cert.catch_spec, i64 noundef 1)
  %38 = getelementptr inbounds nuw %struct.except_catch, ptr %15, i32 0, i32 3
  %39 = getelementptr inbounds [1 x %struct.__jmp_buf_tag], ptr %38, i64 0, i64 0
  %40 = call i32 @_setjmp(ptr noundef %39) #16
  %41 = icmp ne i32 %40, 0
  br i1 %41, label %42, label %44

42:                                               ; preds = %29
  %43 = getelementptr inbounds nuw %struct.except_catch, ptr %15, i32 0, i32 2
  store volatile ptr %43, ptr %12, align 8
  br label %45

44:                                               ; preds = %29
  store volatile ptr null, ptr %12, align 8
  br label %45

45:                                               ; preds = %44, %42
  %46 = load volatile i32, ptr %13, align 4
  %47 = and i32 %46, 1
  %48 = icmp ne i32 %47, 0
  br i1 %48, label %49, label %52

49:                                               ; preds = %45
  %50 = load volatile i32, ptr %13, align 4
  %51 = or i32 %50, 2
  store volatile i32 %51, ptr %13, align 4
  br label %52

52:                                               ; preds = %49, %45
  %53 = load volatile i32, ptr %13, align 4
  %54 = and i32 %53, -2
  store volatile i32 %54, ptr %13, align 4
  %55 = load volatile i32, ptr %13, align 4
  %56 = icmp eq i32 %55, 0
  br i1 %56, label %57, label %66

57:                                               ; preds = %52
  %58 = load volatile ptr, ptr %12, align 8
  %59 = icmp eq ptr %58, null
  br i1 %59, label %60, label %66

60:                                               ; preds = %57
  %61 = load ptr, ptr @table_media, align 8
  %62 = load ptr, ptr %10, align 8
  %63 = load ptr, ptr %6, align 8
  %64 = load ptr, ptr %7, align 8
  %65 = call i32 @dissector_try_string_with_data(ptr noundef %61, ptr noundef @.str.242, ptr noundef %62, ptr noundef %63, ptr noundef %64, i1 noundef zeroext true, ptr noundef null)
  br label %66

66:                                               ; preds = %60, %57, %52
  %67 = load volatile i32, ptr %13, align 4
  %68 = icmp eq i32 %67, 0
  br i1 %68, label %69, label %77

69:                                               ; preds = %66
  %70 = load volatile ptr, ptr %12, align 8
  %71 = icmp ne ptr %70, null
  br i1 %71, label %72, label %77

72:                                               ; preds = %69
  %73 = load volatile i32, ptr %13, align 4
  %74 = or i32 %73, 1
  store volatile i32 %74, ptr %13, align 4
  %75 = icmp ne i32 %74, 0
  br i1 %75, label %76, label %77

76:                                               ; preds = %72
  br label %77

77:                                               ; preds = %76, %72, %69, %66
  %78 = load volatile i32, ptr %13, align 4
  %79 = and i32 %78, 1
  %80 = icmp ne i32 %79, 0
  br i1 %80, label %86, label %81

81:                                               ; preds = %77
  %82 = load volatile ptr, ptr %12, align 8
  %83 = icmp ne ptr %82, null
  br i1 %83, label %84, label %86

84:                                               ; preds = %81
  %85 = load volatile ptr, ptr %12, align 8
  call void @except_rethrow(ptr noundef %85) #17
  unreachable

86:                                               ; preds = %81, %77
  %87 = getelementptr inbounds nuw %struct.except_catch, ptr %15, i32 0, i32 2
  %88 = getelementptr inbounds nuw %struct.except_t, ptr %87, i32 0, i32 2
  %89 = load volatile ptr, ptr %88, align 8
  call void @except_free(ptr noundef %89)
  %90 = call ptr @except_pop()
  call void @llvm.lifetime.end.p0(i64 248, ptr %15) #12
  call void @llvm.lifetime.end.p0(i64 24, ptr %14) #12
  call void @llvm.lifetime.end.p0(i64 4, ptr %13) #12
  call void @llvm.lifetime.end.p0(i64 8, ptr %12) #12
  %91 = load ptr, ptr %6, align 8
  %92 = getelementptr inbounds nuw %struct._packet_info, ptr %91, i32 0, i32 1
  %93 = load ptr, ptr %92, align 8
  %94 = load ptr, ptr %11, align 8
  call void @col_add_str(ptr noundef %93, i32 noundef 25, ptr noundef %94)
  call void @llvm.lifetime.end.p0(i64 8, ptr %11) #12
  br label %95

95:                                               ; preds = %86, %4
  call void @llvm.lifetime.end.p0(i64 8, ptr %10) #12
  call void @llvm.lifetime.end.p0(i64 8, ptr %9) #12
  ret void
}