; Function Attrs: null_pointer_is_valid sspstrong uwtable
define internal fastcc void @dissect_value_x5cert(ptr noundef %0, ptr noundef %1, ptr noundef %2, ptr noundef %3) unnamed_addr #0 {
  %5 = alloca ptr, align 8
  %6 = alloca i32, align 4
  %7 = alloca %struct.except_stacknode, align 8
  %8 = alloca %struct.except_catch, align 8
  %9 = getelementptr inbounds nuw i8, ptr %1, i64 408
  %10 = load ptr, ptr %9, align 8
  %11 = call ptr @wscbor_chunk_read(ptr noundef %10, ptr noundef %0, ptr noundef %3)
  %12 = load ptr, ptr %9, align 8
  %13 = call ptr @wscbor_require_bstr(ptr noundef %12, ptr noundef %11)
  %.not = icmp eq ptr %13, null
  br i1 %.not, label %48, label %14

14:                                               ; preds = %4
  %15 = load ptr, ptr %9, align 8
  %16 = getelementptr inbounds nuw i8, ptr %1, i64 8
  %17 = load ptr, ptr %16, align 8
  %18 = call ptr @col_get_text(ptr noundef %17, i32 noundef 25)
  %19 = call noalias ptr @wmem_strdup(ptr noundef %15, ptr noundef %18)
  call void @llvm.lifetime.start.p0(i64 8, ptr nonnull %5)
  call void @llvm.lifetime.start.p0(i64 4, ptr nonnull %6)
  store volatile i32 0, ptr %6, align 4
  call void @llvm.lifetime.start.p0(i64 24, ptr nonnull %7) #8
  call void @llvm.lifetime.start.p0(i64 248, ptr nonnull %8) #8
  call void @except_setup_try(ptr noundef nonnull %7, ptr noundef nonnull %8, ptr noundef nonnull @dissect_value_x5cert.catch_spec, i64 noundef 1)
  %20 = getelementptr inbounds nuw i8, ptr %8, i64 48
  %21 = call i32 @_setjmp(ptr noundef nonnull %20) #11
  %.not24 = icmp eq i32 %21, 0
  %22 = getelementptr inbounds nuw i8, ptr %8, i64 16
  %.sink = select i1 %.not24, ptr null, ptr %22
  store volatile ptr %.sink, ptr %5, align 8
  %.0..0..0..0. = load volatile i32, ptr %6, align 4
  %23 = and i32 %.0..0..0..0., 1
  %.not25 = icmp eq i32 %23, 0
  br i1 %.not25, label %26, label %24

24:                                               ; preds = %14
  %.0..0..0..0.1 = load volatile i32, ptr %6, align 4
  %25 = or i32 %.0..0..0..0.1, 2
  store volatile i32 %25, ptr %6, align 4
  br label %26

26:                                               ; preds = %24, %14
  %.0..0..0..0.2 = load volatile i32, ptr %6, align 4
  %27 = and i32 %.0..0..0..0.2, -2
  store volatile i32 %27, ptr %6, align 4
  %.0..0..0..0.3 = load volatile i32, ptr %6, align 4
  %28 = icmp eq i32 %.0..0..0..0.3, 0
  br i1 %28, label %29, label %34

29:                                               ; preds = %26
  %.0..0..0..0.7 = load volatile ptr, ptr %5, align 8
  %30 = icmp eq ptr %.0..0..0..0.7, null
  br i1 %30, label %31, label %34

31:                                               ; preds = %29
  %32 = load ptr, ptr @table_media, align 8
  %33 = call i32 @dissector_try_string_with_data(ptr noundef %32, ptr noundef nonnull @.str.242, ptr noundef nonnull %13, ptr noundef %1, ptr noundef %2, i1 noundef zeroext true, ptr noundef null)
  br label %34

34:                                               ; preds = %31, %29, %26
  %.0..0..0..0.4 = load volatile i32, ptr %6, align 4
  %35 = icmp eq i32 %.0..0..0..0.4, 0
  br i1 %35, label %36, label %39

36:                                               ; preds = %34
  %.0..0..0..0.8 = load volatile ptr, ptr %5, align 8
  %.not26 = icmp eq ptr %.0..0..0..0.8, null
  br i1 %.not26, label %39, label %37

37:                                               ; preds = %36
  %.0..0..0..0.5 = load volatile i32, ptr %6, align 4
  %38 = or i32 %.0..0..0..0.5, 1
  store volatile i32 %38, ptr %6, align 4
  br label %39

39:                                               ; preds = %37, %36, %34
  %.0..0..0..0.6 = load volatile i32, ptr %6, align 4
  %40 = and i32 %.0..0..0..0.6, 1
  %.not27 = icmp eq i32 %40, 0
  br i1 %.not27, label %41, label %43

41:                                               ; preds = %39
  %.0..0..0..0.9 = load volatile ptr, ptr %5, align 8
  %.not28 = icmp eq ptr %.0..0..0..0.9, null
  br i1 %.not28, label %43, label %42

42:                                               ; preds = %41
  %.0..0..0..0.10 = load volatile ptr, ptr %5, align 8
  call void @except_rethrow(ptr noundef %.0..0..0..0.10) #12
  unreachable

43:                                               ; preds = %41, %39
  %44 = getelementptr inbounds nuw i8, ptr %8, i64 40
  %45 = load volatile ptr, ptr %44, align 8
  call void @except_free(ptr noundef %45)
  %46 = call ptr @except_pop()
  call void @llvm.lifetime.end.p0(i64 248, ptr nonnull %8) #8
  call void @llvm.lifetime.end.p0(i64 24, ptr nonnull %7) #8
  call void @llvm.lifetime.end.p0(i64 4, ptr nonnull %6)
  call void @llvm.lifetime.end.p0(i64 8, ptr nonnull %5)
  %47 = load ptr, ptr %16, align 8
  call void @col_add_str(ptr noundef %47, i32 noundef 25, ptr noundef %19)
  br label %48

48:                                               ; preds = %43, %4
  ret void
}